#include <math.h>
#include <stdio.h>
#include <stdlib.h>
#include <string.h>
#include <iostream>
using namespace std;

int main()
{
	int a,b,c,d,e;
	int a1,b1,c1,d1,e1;
	e = 1;
	for(int a = 1; a<= 5; a++)
	{
		for( b = 1; b <= 5 ;b++)
		{
			a1 = 5;
			if( b == 2 && ( b!= 1 || b != 2))
				continue;
			     b1 =2;
			for( c = 1; c <= 5; c++)
			{
				if( a == 5 && ( c!=1 ||c != 2))
					continue;
				    c1 = 1;
				for(d =1; d<= 5; d++)
				{
					if( c!=1 && ( d != 1 || d != 2))
						continue;
				       d1 =3; e1 =4;
					for( e =1 ;e<= 5;e++)
					{
						if( e == 2 || e == 3)
							continue;
						if ( a1!=b1 && a1!=c1 &&a1!=d1 &&a1!=e1 &&b1 !=c1 &&b1!= d1&& b1!= e1 &&c1!= d1 &&c1!=e1 &&d1 !=e1)
						{
						    cout << a1 <<" " << b1 <<" " <<c1 <<" " << d1 << " " <<e1 << endl;
							return 0;
						  
						}
					}
					e = 1;
				}
				d = 1;
			}
			c = 1;
		}
		d=1;
	}
	return 0;
}
